; Function Attrs: nofree norecurse nosync nounwind memory(argmem: write) uwtable
define hidden void @aom_dc_128_predictor_16x8_c(ptr nocapture noundef writeonly %0, i64 noundef %1, ptr nocapture noundef readnone %2, ptr nocapture noundef readnone %3) local_unnamed_addr #2 {
  br label %5

5:                                                ; preds = %5, %4
  %.02.i = phi i32 [ 0, %4 ], [ %7, %5 ]
  %.061.i = phi ptr [ %0, %4 ], [ %6, %5 ]
  tail call void @llvm.memset.p0.i64(ptr noundef nonnull align 1 dereferenceable(16) %.061.i, i8 -128, i64 16, i1 false)
  %6 = getelementptr inbounds i8, ptr %.061.i, i64 %1
  %7 = add nuw nsw i32 %.02.i, 1
  %exitcond.not.i = icmp eq i32 %7, 8
  br i1 %exitcond.not.i, label %dc_128_predictor.exit, label %5, !llvm.loop !37

dc_128_predictor.exit:                            ; preds = %5
  ret void
}